; Function Attrs: mustprogress nounwind uwtable
define dso_local void @stbtt_MakeGlyphBitmapSubpixel(ptr noundef readonly captures(none) %0, ptr noundef %1, i32 noundef %2, i32 noundef %3, i32 noundef %4, float noundef %5, float noundef %6, float noundef %7, float noundef %8, i32 noundef %9) local_unnamed_addr #3 {
  %11 = alloca i32, align 4
  %12 = alloca i32, align 4
  %13 = alloca i32, align 4
  %14 = alloca i32, align 4
  %15 = alloca ptr, align 8
  %16 = alloca %struct.stbtt__bitmap, align 8
  %17 = call i32 @stbtt_GetGlyphShape(ptr noundef %0, i32 noundef %9, ptr noundef nonnull %15)
  call void @llvm.lifetime.start.p0(i64 4, ptr nonnull %11)
  call void @llvm.lifetime.start.p0(i64 4, ptr nonnull %12)
  call void @llvm.lifetime.start.p0(i64 4, ptr nonnull %13)
  call void @llvm.lifetime.start.p0(i64 4, ptr nonnull %14)
  store i32 0, ptr %11, align 4
  %18 = call i32 @stbtt_GetGlyphBox(ptr noundef readonly %0, i32 noundef %9, ptr noundef nonnull %11, ptr noundef nonnull %12, ptr noundef nonnull %13, ptr noundef nonnull %14)
  %.not.i = icmp eq i32 %18, 0
  br i1 %.not.i, label %stbtt_GetGlyphBitmapBoxSubpixel.exit, label %19

19:                                               ; preds = %10
  %20 = load i32, ptr %11, align 4
  %21 = sitofp i32 %20 to float
  %22 = call float @llvm.fmuladd.f32(float %21, float %5, float %7)
  %23 = call noundef float @llvm.floor.f32(float %22)
  %24 = fptosi float %23 to i32
  %25 = load i32, ptr %14, align 4
  %26 = sub nsw i32 0, %25
  %27 = sitofp i32 %26 to float
  %28 = call float @llvm.fmuladd.f32(float %27, float %6, float %8)
  %29 = call noundef float @llvm.floor.f32(float %28)
  %30 = fptosi float %29 to i32
  br label %stbtt_GetGlyphBitmapBoxSubpixel.exit

stbtt_GetGlyphBitmapBoxSubpixel.exit:             ; preds = %10, %19
  %.021 = phi i32 [ %24, %19 ], [ 0, %10 ]
  %.0 = phi i32 [ %30, %19 ], [ 0, %10 ]
  call void @llvm.lifetime.end.p0(i64 4, ptr nonnull %11)
  call void @llvm.lifetime.end.p0(i64 4, ptr nonnull %12)
  call void @llvm.lifetime.end.p0(i64 4, ptr nonnull %13)
  call void @llvm.lifetime.end.p0(i64 4, ptr nonnull %14)
  %31 = getelementptr inbounds nuw i8, ptr %16, i64 16
  store ptr %1, ptr %31, align 8
  store i32 %2, ptr %16, align 8
  %32 = getelementptr inbounds nuw i8, ptr %16, i64 4
  store i32 %3, ptr %32, align 4
  %33 = getelementptr inbounds nuw i8, ptr %16, i64 8
  store i32 %4, ptr %33, align 8
  %34 = icmp ne i32 %2, 0
  %35 = icmp ne i32 %3, 0
  %or.cond = and i1 %34, %35
  %.pre = load ptr, ptr %15, align 8
  br i1 %or.cond, label %36, label %37

36:                                               ; preds = %stbtt_GetGlyphBitmapBoxSubpixel.exit
  call void @stbtt_Rasterize(ptr noundef nonnull %16, float noundef 0x3FD6666660000000, ptr noundef %.pre, i32 noundef %17, float noundef %5, float noundef %6, float noundef %7, float noundef %8, i32 noundef %.021, i32 noundef %.0, i32 noundef 1, ptr poison)
  br label %37

37:                                               ; preds = %36, %stbtt_GetGlyphBitmapBoxSubpixel.exit
  call void @free(ptr noundef %.pre) #28
  ret void
}